target datalayout = "e-m:e-p270:32:32-p271:32:32-p272:64:64-i64:64-i128:128-f80:128-n8:16:32:64-S128"
target triple = "x86_64-unknown-linux-gnu"

%"class.OpenImageIO_v2_6_0::ustring" = type { ptr }
%"class.OpenImageIO_v2_6_0::ustringhash" = type { i64 }

; Function Attrs: mustprogress nounwind uwtable
define linkonce_odr noundef ptr @_ZNK18OpenImageIO_v2_6_07ustring5c_strEv(ptr noundef nonnull align 8 dereferenceable(8) %this) #1 comdat align 2 {
entry:
  %this.addr = alloca ptr, align 8
  store ptr %this, ptr %this.addr, align 8
  %this1 = load ptr, ptr %this.addr, align 8
  %m_chars = getelementptr inbounds %"class.OpenImageIO_v2_6_0::ustring", ptr %this1, i32 0, i32 0
  %0 = load ptr, ptr %m_chars, align 8
  ret ptr %0
}

; Function Attrs: mustprogress nounwind uwtable
define linkonce_odr noundef i64 @_ZNK18OpenImageIO_v2_6_011ustringhash4hashEv(ptr noundef nonnull align 8 dereferenceable(8) %this) #1 comdat align 2 {
entry:
  %this.addr = alloca ptr, align 8
  store ptr %this, ptr %this.addr, align 8
  %this1 = load ptr, ptr %this.addr, align 8
  %m_hash = getelementptr inbounds %"class.OpenImageIO_v2_6_0::ustringhash", ptr %this1, i32 0, i32 0
  %0 = load i64, ptr %m_hash, align 8
  ret i64 %0
}

; Function Attrs: mustprogress nounwind uwtable
define linkonce_odr void @_ZN18OpenImageIO_v2_6_07ustringD2Ev(ptr noundef nonnull align 8 dereferenceable(8) %this) unnamed_addr #1 comdat align 2 {
entry:
  %this.addr = alloca ptr, align 8
  store ptr %this, ptr %this.addr, align 8
  ret void
}

; Function Attrs: mustprogress uwtable
define linkonce_odr void @_ZN18OpenImageIO_v2_6_07ustringC2ENS_11ustringhashE(ptr noundef nonnull align 8 dereferenceable(8) %this, ptr noundef %hash) unnamed_addr #7 comdat align 2 {
entry:
  %this.addr = alloca ptr, align 8
  %hash.indirect_addr = alloca ptr, align 8
  %ref.tmp = alloca %"class.OpenImageIO_v2_6_0::ustring", align 8
  store ptr %this, ptr %this.addr, align 8
  store ptr %hash, ptr %hash.indirect_addr, align 8
  %this1 = load ptr, ptr %this.addr, align 8
  %call = call noundef i64 @_ZNK18OpenImageIO_v2_6_011ustringhash4hashEv(ptr noundef nonnull align 8 dereferenceable(8) %hash) #5
  call void @_ZN18OpenImageIO_v2_6_07ustring9from_hashEm(ptr sret(%"class.OpenImageIO_v2_6_0::ustring") align 8 %ref.tmp, i64 noundef %call)
  %call2 = call noundef ptr @_ZNK18OpenImageIO_v2_6_07ustring5c_strEv(ptr noundef nonnull align 8 dereferenceable(8) %ref.tmp) #5
  %m_chars = getelementptr inbounds %"class.OpenImageIO_v2_6_0::ustring", ptr %this1, i32 0, i32 0
  store ptr %call2, ptr %m_chars, align 8
  call void @_ZN18OpenImageIO_v2_6_07ustringD2Ev(ptr noundef nonnull align 8 dereferenceable(8) %ref.tmp) #5
  ret void
}

; Function Attrs: mustprogress nounwind uwtable
define linkonce_odr void @_ZN18OpenImageIO_v2_6_011ustringhashC2ERKS0_(ptr noundef nonnull align 8 dereferenceable(8) %this, ptr noundef nonnull align 8 dereferenceable(8) %str) unnamed_addr #1 comdat align 2 {
entry:
  %this.addr = alloca ptr, align 8
  %str.addr = alloca ptr, align 8
  store ptr %this, ptr %this.addr, align 8
  store ptr %str, ptr %str.addr, align 8
  %this1 = load ptr, ptr %this.addr, align 8
  %m_hash = getelementptr inbounds %"class.OpenImageIO_v2_6_0::ustringhash", ptr %this1, i32 0, i32 0
  %0 = load ptr, ptr %str.addr, align 8
  %m_hash2 = getelementptr inbounds %"class.OpenImageIO_v2_6_0::ustringhash", ptr %0, i32 0, i32 0
  %1 = load i64, ptr %m_hash2, align 8
  store i64 %1, ptr %m_hash, align 8
  ret void
}

; Function Attrs: mustprogress uwtable
define hidden noundef i32 @_ZNK18OpenImageIO_v2_6_03pvt17TextureSystemImpl21get_colortransform_idENS_11ustringhashES2_(ptr noundef nonnull align 8 dereferenceable(184) %this, ptr noundef %fromspace, ptr noundef %tospace) unnamed_addr #7 align 2 personality ptr @__gxx_personality_v0 {
entry:
  %this.addr = alloca ptr, align 8
  %fromspace.indirect_addr = alloca ptr, align 8
  %tospace.indirect_addr = alloca ptr, align 8
  %agg.tmp = alloca %"class.OpenImageIO_v2_6_0::ustring", align 8
  %agg.tmp2 = alloca %"class.OpenImageIO_v2_6_0::ustringhash", align 8
  %agg.tmp3 = alloca %"class.OpenImageIO_v2_6_0::ustring", align 8
  %agg.tmp4 = alloca %"class.OpenImageIO_v2_6_0::ustringhash", align 8
  %exn.slot = alloca ptr, align 8
  %ehselector.slot = alloca i32, align 4
  store ptr %this, ptr %this.addr, align 8
  store ptr %fromspace, ptr %fromspace.indirect_addr, align 8
  store ptr %tospace, ptr %tospace.indirect_addr, align 8
  %this1 = load ptr, ptr %this.addr, align 8
  call void @_ZN18OpenImageIO_v2_6_011ustringhashC2ERKS0_(ptr noundef nonnull align 8 dereferenceable(8) %agg.tmp2, ptr noundef nonnull align 8 dereferenceable(8) %fromspace) #5
  call void @_ZN18OpenImageIO_v2_6_07ustringC2ENS_11ustringhashE(ptr noundef nonnull align 8 dereferenceable(8) %agg.tmp, ptr noundef %agg.tmp2)
  call void @_ZN18OpenImageIO_v2_6_011ustringhashC2ERKS0_(ptr noundef nonnull align 8 dereferenceable(8) %agg.tmp4, ptr noundef nonnull align 8 dereferenceable(8) %tospace) #5
  invoke void @_ZN18OpenImageIO_v2_6_07ustringC2ENS_11ustringhashE(ptr noundef nonnull align 8 dereferenceable(8) %agg.tmp3, ptr noundef %agg.tmp4)
          to label %invoke.cont unwind label %lpad

invoke.cont:                                      ; preds = %entry
  %call = invoke noundef i32 @_ZNK18OpenImageIO_v2_6_03pvt17TextureSystemImpl21get_colortransform_idENS_7ustringES2_(ptr noundef nonnull align 8 dereferenceable(184) %this1, ptr noundef %agg.tmp, ptr noundef %agg.tmp3)
          to label %invoke.cont6 unwind label %lpad5

invoke.cont6:                                     ; preds = %invoke.cont
  call void @_ZN18OpenImageIO_v2_6_07ustringD2Ev(ptr noundef nonnull align 8 dereferenceable(8) %agg.tmp3) #5
  call void @_ZN18OpenImageIO_v2_6_07ustringD2Ev(ptr noundef nonnull align 8 dereferenceable(8) %agg.tmp) #5
  ret i32 %call

lpad:                                             ; preds = %entry
  %0 = landingpad { ptr, i32 }
          cleanup
  %1 = extractvalue { ptr, i32 } %0, 0
  store ptr %1, ptr %exn.slot, align 8
  %2 = extractvalue { ptr, i32 } %0, 1
  store i32 %2, ptr %ehselector.slot, align 4
  br label %ehcleanup

lpad5:                                            ; preds = %invoke.cont
  %3 = landingpad { ptr, i32 }
          cleanup
  %4 = extractvalue { ptr, i32 } %3, 0
  store ptr %4, ptr %exn.slot, align 8
  %5 = extractvalue { ptr, i32 } %3, 1
  store i32 %5, ptr %ehselector.slot, align 4
  call void @_ZN18OpenImageIO_v2_6_07ustringD2Ev(ptr noundef nonnull align 8 dereferenceable(8) %agg.tmp3) #5
  br label %ehcleanup

ehcleanup:                                        ; preds = %lpad5, %lpad
  call void @_ZN18OpenImageIO_v2_6_07ustringD2Ev(ptr noundef nonnull align 8 dereferenceable(8) %agg.tmp) #5
  br label %eh.resume

eh.resume:                                        ; preds = %ehcleanup
  %exn = load ptr, ptr %exn.slot, align 8
  %sel = load i32, ptr %ehselector.slot, align 4
  %lpad.val = insertvalue { ptr, i32 } poison, ptr %exn, 0
  %lpad.val7 = insertvalue { ptr, i32 } %lpad.val, i32 %sel, 1
  resume { ptr, i32 } %lpad.val7
}