; Function Attrs: mustprogress uwtable
define hidden noundef i32 @_ZNK18OpenImageIO_v2_6_03pvt17TextureSystemImpl21get_colortransform_idENS_11ustringhashES2_(ptr nocapture noundef nonnull readonly align 8 dereferenceable(184) %this, ptr nocapture noundef readonly %fromspace, ptr nocapture noundef readonly %tospace) unnamed_addr #5 align 2 personality ptr @__gxx_personality_v0 {
entry:
  %agg.tmp = alloca %"class.OpenImageIO_v2_6_0::ustring", align 8
  %agg.tmp3 = alloca %"class.OpenImageIO_v2_6_0::ustring", align 8
  %0 = load i64, ptr %fromspace, align 8
  call void @_ZN18OpenImageIO_v2_6_07ustring9from_hashEm(ptr nonnull sret(%"class.OpenImageIO_v2_6_0::ustring") align 8 %agg.tmp, i64 noundef %0)
  %1 = load i64, ptr %tospace, align 8
  call void @_ZN18OpenImageIO_v2_6_07ustring9from_hashEm(ptr nonnull sret(%"class.OpenImageIO_v2_6_0::ustring") align 8 %agg.tmp3, i64 noundef %1)
  %call = call noundef i32 @_ZNK18OpenImageIO_v2_6_03pvt17TextureSystemImpl21get_colortransform_idENS_7ustringES2_(ptr noundef nonnull align 8 dereferenceable(184) %this, ptr noundef nonnull %agg.tmp, ptr noundef nonnull %agg.tmp3)
  ret i32 %call
}